target datalayout = "e-m:e-p270:32:32-p271:32:32-p272:64:64-i64:64-i128:128-f80:128-n8:16:32:64-S128"
target triple = "x86_64-pc-linux-gnu"

%struct._object = type { %union.anon, ptr }
%union.anon = type { i64 }
%struct.PyVarObject = type { %struct._object, i64 }

@.str.13 = private unnamed_addr constant [7 x i8] c"sha512\00", align 1

; Function Attrs: inlinehint nounwind uwtable
define internal i64 @Py_SIZE(ptr noundef %0) #4 {
  %2 = alloca ptr, align 8
  store ptr %0, ptr %2, align 8, !tbaa !14
  %3 = load ptr, ptr %2, align 8, !tbaa !14
  %4 = getelementptr inbounds nuw %struct.PyVarObject, ptr %3, i32 0, i32 1
  %5 = load i64, ptr %4, align 8, !tbaa !68
  ret i64 %5
}

; Function Attrs: nounwind uwtable
define internal ptr @_hashlib_openssl_sha512_impl(ptr noundef %0, ptr noundef %1, i32 noundef %2) #0 {
  %4 = alloca ptr, align 8
  %5 = alloca ptr, align 8
  %6 = alloca i32, align 4
  store ptr %0, ptr %4, align 8, !tbaa !14
  store ptr %1, ptr %5, align 8, !tbaa !14
  store i32 %2, ptr %6, align 4, !tbaa !19
  %7 = load ptr, ptr %4, align 8, !tbaa !14
  %8 = load ptr, ptr %5, align 8, !tbaa !14
  %9 = load i32, ptr %6, align 4, !tbaa !19
  %10 = call ptr @py_evp_fromname(ptr noundef %7, ptr noundef @.str.13, ptr noundef %8, i32 noundef %9)
  ret ptr %10
}

; Function Attrs: inlinehint nounwind uwtable
define internal i64 @PyTuple_GET_SIZE(ptr noundef %0) #4 {
  %2 = alloca ptr, align 8
  %3 = alloca ptr, align 8
  store ptr %0, ptr %2, align 8, !tbaa !14
  call void @llvm.lifetime.start.p0(i64 8, ptr %3) #9
  %4 = load ptr, ptr %2, align 8, !tbaa !14
  store ptr %4, ptr %3, align 8, !tbaa !3
  %5 = load ptr, ptr %3, align 8, !tbaa !3
  %6 = call i64 @Py_SIZE(ptr noundef %5)
  call void @llvm.lifetime.end.p0(i64 8, ptr %3) #9
  ret i64 %6
}

; Function Attrs: nounwind uwtable
define internal ptr @_hashlib_openssl_sha512(ptr noundef %0, ptr noundef %1, i64 noundef %2, ptr noundef %3) #0 {
  %5 = alloca ptr, align 8
  %6 = alloca ptr, align 8
  %7 = alloca i64, align 8
  %8 = alloca ptr, align 8
  %9 = alloca ptr, align 8
  %10 = alloca [2 x ptr], align 16
  %11 = alloca i64, align 8
  %12 = alloca ptr, align 8
  %13 = alloca i32, align 4
  store ptr %0, ptr %5, align 8, !tbaa !14
  store ptr %1, ptr %6, align 8, !tbaa !30
  store i64 %2, ptr %7, align 8, !tbaa !32
  store ptr %3, ptr %8, align 8, !tbaa !14
  call void @llvm.lifetime.start.p0(i64 8, ptr %9) #9
  store ptr null, ptr %9, align 8, !tbaa !14
  call void @llvm.lifetime.start.p0(i64 16, ptr %10) #9
  call void @llvm.lifetime.start.p0(i64 8, ptr %11) #9
  %14 = load i64, ptr %7, align 8, !tbaa !32
  %15 = load ptr, ptr %8, align 8, !tbaa !14
  %16 = icmp ne ptr %15, null
  br i1 %16, label %17, label %20

17:                                               ; preds = %4
  %18 = load ptr, ptr %8, align 8, !tbaa !14
  %19 = call i64 @PyTuple_GET_SIZE(ptr noundef %18)
  br label %21

20:                                               ; preds = %4
  br label %21

21:                                               ; preds = %20, %17
  %22 = phi i64 [ %19, %17 ], [ 0, %20 ]
  %23 = add i64 %14, %22
  %24 = sub i64 %23, 0
  store i64 %24, ptr %11, align 8, !tbaa !32
  call void @llvm.lifetime.start.p0(i64 8, ptr %12) #9
  store ptr null, ptr %12, align 8, !tbaa !14
  call void @llvm.lifetime.start.p0(i64 4, ptr %13) #9
  store i32 1, ptr %13, align 4, !tbaa !19
  %25 = load ptr, ptr %8, align 8, !tbaa !14
  %26 = icmp eq ptr %25, null
  br i1 %26, label %27, label %38

27:                                               ; preds = %21
  %28 = load i64, ptr %7, align 8, !tbaa !32
  %29 = icmp sle i64 0, %28
  br i1 %29, label %30, label %38

30:                                               ; preds = %27
  %31 = load i64, ptr %7, align 8, !tbaa !32
  %32 = icmp sle i64 %31, 1
  br i1 %32, label %33, label %38

33:                                               ; preds = %30
  %34 = load ptr, ptr %6, align 8, !tbaa !30
  %35 = icmp ne ptr %34, null
  br i1 %35, label %36, label %38

36:                                               ; preds = %33
  %37 = load ptr, ptr %6, align 8, !tbaa !30
  br label %44

38:                                               ; preds = %33, %30, %27, %21
  %39 = load ptr, ptr %6, align 8, !tbaa !30
  %40 = load i64, ptr %7, align 8, !tbaa !32
  %41 = load ptr, ptr %8, align 8, !tbaa !14
  %42 = getelementptr inbounds [2 x ptr], ptr %10, i64 0, i64 0
  %43 = call ptr @_PyArg_UnpackKeywords(ptr noundef %39, i64 noundef %40, ptr noundef null, ptr noundef %41, ptr noundef @_hashlib_openssl_sha512._parser, i32 noundef 0, i32 noundef 1, i32 noundef 0, i32 noundef 0, ptr noundef %42)
  br label %44

44:                                               ; preds = %38, %36
  %45 = phi ptr [ %37, %36 ], [ %43, %38 ]
  store ptr %45, ptr %6, align 8, !tbaa !30
  %46 = load ptr, ptr %6, align 8, !tbaa !30
  %47 = icmp ne ptr %46, null
  br i1 %47, label %49, label %48

48:                                               ; preds = %44
  br label %86

49:                                               ; preds = %44
  %50 = load i64, ptr %11, align 8, !tbaa !32
  %51 = icmp ne i64 %50, 0
  br i1 %51, label %53, label %52

52:                                               ; preds = %49
  br label %68

53:                                               ; preds = %49
  %54 = load ptr, ptr %6, align 8, !tbaa !30
  %55 = getelementptr ptr, ptr %54, i64 0
  %56 = load ptr, ptr %55, align 8, !tbaa !14
  %57 = icmp ne ptr %56, null
  br i1 %57, label %58, label %67

58:                                               ; preds = %53
  %59 = load ptr, ptr %6, align 8, !tbaa !30
  %60 = getelementptr ptr, ptr %59, i64 0
  %61 = load ptr, ptr %60, align 8, !tbaa !14
  store ptr %61, ptr %12, align 8, !tbaa !14
  %62 = load i64, ptr %11, align 8, !tbaa !32
  %63 = add i64 %62, -1
  store i64 %63, ptr %11, align 8, !tbaa !32
  %64 = icmp ne i64 %63, 0
  br i1 %64, label %66, label %65

65:                                               ; preds = %58
  br label %68

66:                                               ; preds = %58
  br label %67

67:                                               ; preds = %66, %53
  br label %68

68:                                               ; preds = %67, %65, %52
  %69 = load i64, ptr %11, align 8, !tbaa !32
  %70 = icmp ne i64 %69, 0
  br i1 %70, label %72, label %71

71:                                               ; preds = %68
  br label %81

72:                                               ; preds = %68
  %73 = load ptr, ptr %6, align 8, !tbaa !30
  %74 = getelementptr ptr, ptr %73, i64 1
  %75 = load ptr, ptr %74, align 8, !tbaa !14
  %76 = call i32 @PyObject_IsTrue(ptr noundef %75)
  store i32 %76, ptr %13, align 4, !tbaa !19
  %77 = load i32, ptr %13, align 4, !tbaa !19
  %78 = icmp slt i32 %77, 0
  br i1 %78, label %79, label %80

79:                                               ; preds = %72
  br label %86

80:                                               ; preds = %72
  br label %81

81:                                               ; preds = %80, %71
  %82 = load ptr, ptr %5, align 8, !tbaa !14
  %83 = load ptr, ptr %12, align 8, !tbaa !14
  %84 = load i32, ptr %13, align 4, !tbaa !19
  %85 = call ptr @_hashlib_openssl_sha512_impl(ptr noundef %82, ptr noundef %83, i32 noundef %84)
  store ptr %85, ptr %9, align 8, !tbaa !14
  br label %86

86:                                               ; preds = %81, %79, %48
  %87 = load ptr, ptr %9, align 8, !tbaa !14
  call void @llvm.lifetime.end.p0(i64 4, ptr %13) #9
  call void @llvm.lifetime.end.p0(i64 8, ptr %12) #9
  call void @llvm.lifetime.end.p0(i64 8, ptr %11) #9
  call void @llvm.lifetime.end.p0(i64 16, ptr %10) #9
  call void @llvm.lifetime.end.p0(i64 8, ptr %9) #9
  ret ptr %87
}